target datalayout = "e-m:e-p270:32:32-p271:32:32-p272:64:64-i64:64-i128:128-f80:128-n8:16:32:64-S128"
target triple = "x86_64-pc-linux-gnu"

%"class.pxrInternal_v0_24__pxrReserved__::VtArray" = type { %"class.pxrInternal_v0_24__pxrReserved__::Vt_ArrayBase", ptr }
%"class.pxrInternal_v0_24__pxrReserved__::Vt_ArrayBase" = type { %"struct.pxrInternal_v0_24__pxrReserved__::Vt_ShapeData", ptr }
%"struct.pxrInternal_v0_24__pxrReserved__::Vt_ShapeData" = type { i64, [3 x i32] }
%"class.pxrInternal_v0_24__pxrReserved__::PxOsdMeshTopology" = type <{ %"class.pxrInternal_v0_24__pxrReserved__::TfToken", %"class.pxrInternal_v0_24__pxrReserved__::TfToken", %"class.pxrInternal_v0_24__pxrReserved__::VtArray", %"class.pxrInternal_v0_24__pxrReserved__::VtArray", %"class.pxrInternal_v0_24__pxrReserved__::VtArray", %"class.pxrInternal_v0_24__pxrReserved__::PxOsdSubdivTags", %"struct.pxrInternal_v0_24__pxrReserved__::PxOsdMeshTopology::_Validated", [7 x i8] }>
%"class.pxrInternal_v0_24__pxrReserved__::TfToken" = type { %"class.pxrInternal_v0_24__pxrReserved__::TfPointerAndBits" }
%"class.pxrInternal_v0_24__pxrReserved__::TfPointerAndBits" = type { ptr }
%"class.pxrInternal_v0_24__pxrReserved__::PxOsdSubdivTags" = type { %"class.pxrInternal_v0_24__pxrReserved__::TfToken", %"class.pxrInternal_v0_24__pxrReserved__::TfToken", %"class.pxrInternal_v0_24__pxrReserved__::TfToken", %"class.pxrInternal_v0_24__pxrReserved__::TfToken", %"class.pxrInternal_v0_24__pxrReserved__::VtArray", %"class.pxrInternal_v0_24__pxrReserved__::VtArray", %"class.pxrInternal_v0_24__pxrReserved__::VtArray.0", %"class.pxrInternal_v0_24__pxrReserved__::VtArray", %"class.pxrInternal_v0_24__pxrReserved__::VtArray.0" }
%"class.pxrInternal_v0_24__pxrReserved__::VtArray.0" = type { %"class.pxrInternal_v0_24__pxrReserved__::Vt_ArrayBase", ptr }
%"struct.pxrInternal_v0_24__pxrReserved__::PxOsdMeshTopology::_Validated" = type { %"struct.std::atomic" }
%"struct.std::atomic" = type { %"struct.std::__atomic_base" }
%"struct.std::__atomic_base" = type { i8 }
%"class.pxrInternal_v0_24__pxrReserved__::TfStaticData" = type { %"struct.std::atomic.1" }
%"struct.std::atomic.1" = type { %"struct.std::__atomic_base.2" }
%"struct.std::__atomic_base.2" = type { ptr }
%"class.std::initializer_list" = type { ptr, i64 }
%"struct.pxrInternal_v0_24__pxrReserved__::PxOsdOpenSubdivTokens_StaticTokenType" = type { %"class.pxrInternal_v0_24__pxrReserved__::TfToken", %"class.pxrInternal_v0_24__pxrReserved__::TfToken", %"class.pxrInternal_v0_24__pxrReserved__::TfToken", %"class.pxrInternal_v0_24__pxrReserved__::TfToken", %"class.pxrInternal_v0_24__pxrReserved__::TfToken", %"class.pxrInternal_v0_24__pxrReserved__::TfToken", %"class.pxrInternal_v0_24__pxrReserved__::TfToken", %"class.pxrInternal_v0_24__pxrReserved__::TfToken", %"class.pxrInternal_v0_24__pxrReserved__::TfToken", %"class.pxrInternal_v0_24__pxrReserved__::TfToken", %"class.pxrInternal_v0_24__pxrReserved__::TfToken", %"class.pxrInternal_v0_24__pxrReserved__::TfToken", %"class.pxrInternal_v0_24__pxrReserved__::TfToken", %"class.pxrInternal_v0_24__pxrReserved__::TfToken", %"class.pxrInternal_v0_24__pxrReserved__::TfToken", %"class.pxrInternal_v0_24__pxrReserved__::TfToken", %"class.std::vector" }
%"class.std::vector" = type { %"struct.std::_Vector_base" }
%"struct.std::_Vector_base" = type { %"struct.std::_Vector_base<pxrInternal_v0_24__pxrReserved__::TfToken, std::allocator<pxrInternal_v0_24__pxrReserved__::TfToken>>::_Vector_impl" }
%"struct.std::_Vector_base<pxrInternal_v0_24__pxrReserved__::TfToken, std::allocator<pxrInternal_v0_24__pxrReserved__::TfToken>>::_Vector_impl" = type { %"struct.std::_Vector_base<pxrInternal_v0_24__pxrReserved__::TfToken, std::allocator<pxrInternal_v0_24__pxrReserved__::TfToken>>::_Vector_impl_data" }
%"struct.std::_Vector_base<pxrInternal_v0_24__pxrReserved__::TfToken, std::allocator<pxrInternal_v0_24__pxrReserved__::TfToken>>::_Vector_impl_data" = type { ptr, ptr, ptr }

@__dso_handle = external hidden global i8
@_ZN32pxrInternal_v0_24__pxrReserved__21PxOsdOpenSubdivTokensE = external global %"class.pxrInternal_v0_24__pxrReserved__::TfStaticData", align 8
@_ZZN32pxrInternal_v0_24__pxrReserved__33UsdImagingGetUnitCubeMeshTopologyEvE8numVerts = internal global %"class.pxrInternal_v0_24__pxrReserved__::VtArray" zeroinitializer, align 8
@_ZGVZN32pxrInternal_v0_24__pxrReserved__33UsdImagingGetUnitCubeMeshTopologyEvE8numVerts = internal global i64 0, align 8
@constinit.3 = private constant [6 x i32] [i32 4, i32 4, i32 4, i32 4, i32 4, i32 4], align 4
@_ZZN32pxrInternal_v0_24__pxrReserved__33UsdImagingGetUnitCubeMeshTopologyEvE5verts = internal global %"class.pxrInternal_v0_24__pxrReserved__::VtArray" zeroinitializer, align 8
@_ZGVZN32pxrInternal_v0_24__pxrReserved__33UsdImagingGetUnitCubeMeshTopologyEvE5verts = internal global i64 0, align 8
@constinit.4 = private constant [24 x i32] [i32 0, i32 1, i32 2, i32 3, i32 4, i32 5, i32 6, i32 7, i32 0, i32 6, i32 5, i32 1, i32 4, i32 7, i32 3, i32 2, i32 0, i32 3, i32 7, i32 6, i32 4, i32 2, i32 1, i32 5], align 4
@_ZZN32pxrInternal_v0_24__pxrReserved__33UsdImagingGetUnitCubeMeshTopologyEvE8cubeTopo = internal global %"class.pxrInternal_v0_24__pxrReserved__::PxOsdMeshTopology" zeroinitializer, align 8
@_ZGVZN32pxrInternal_v0_24__pxrReserved__33UsdImagingGetUnitCubeMeshTopologyEvE8cubeTopo = internal global i64 0, align 8

; Function Attrs: mustprogress uwtable
define noundef nonnull align 8 dereferenceable(369) ptr @_ZN32pxrInternal_v0_24__pxrReserved__33UsdImagingGetUnitCubeMeshTopologyEv() #0 personality ptr @__gxx_personality_v0 {
  %1 = alloca %"class.std::initializer_list", align 8
  %2 = alloca [6 x i32], align 4
  %3 = alloca ptr, align 8
  %4 = alloca i32, align 4
  %5 = alloca %"class.std::initializer_list", align 8
  %6 = alloca [24 x i32], align 4
  %7 = load atomic i8, ptr @_ZGVZN32pxrInternal_v0_24__pxrReserved__33UsdImagingGetUnitCubeMeshTopologyEvE8numVerts acquire, align 8
  %8 = icmp eq i8 %7, 0
  br i1 %8, label %9, label %21, !prof !4

9:                                                ; preds = %0
  %10 = call i32 @__cxa_guard_acquire(ptr @_ZGVZN32pxrInternal_v0_24__pxrReserved__33UsdImagingGetUnitCubeMeshTopologyEvE8numVerts) #1
  %11 = icmp ne i32 %10, 0
  br i1 %11, label %12, label %21

12:                                               ; preds = %9
  call void @llvm.memcpy.p0.p0.i64(ptr align 4 %2, ptr align 4 @constinit.3, i64 24, i1 false)
  %13 = getelementptr inbounds nuw %"class.std::initializer_list", ptr %1, i32 0, i32 0
  store ptr %2, ptr %13, align 8
  %14 = getelementptr inbounds nuw %"class.std::initializer_list", ptr %1, i32 0, i32 1
  store i64 6, ptr %14, align 8
  %15 = getelementptr inbounds nuw { ptr, i64 }, ptr %1, i32 0, i32 0
  %16 = load ptr, ptr %15, align 8
  %17 = getelementptr inbounds nuw { ptr, i64 }, ptr %1, i32 0, i32 1
  %18 = load i64, ptr %17, align 8
  invoke void @_ZN32pxrInternal_v0_24__pxrReserved__7VtArrayIiEC1ESt16initializer_listIiE(ptr noundef nonnull align 8 dereferenceable(40) @_ZZN32pxrInternal_v0_24__pxrReserved__33UsdImagingGetUnitCubeMeshTopologyEvE8numVerts, ptr %16, i64 %18)
          to label %19 unwind label %52

19:                                               ; preds = %12
  %20 = call i32 @__cxa_atexit(ptr @_ZN32pxrInternal_v0_24__pxrReserved__7VtArrayIiED1Ev, ptr @_ZZN32pxrInternal_v0_24__pxrReserved__33UsdImagingGetUnitCubeMeshTopologyEvE8numVerts, ptr @__dso_handle) #1
  call void @__cxa_guard_release(ptr @_ZGVZN32pxrInternal_v0_24__pxrReserved__33UsdImagingGetUnitCubeMeshTopologyEvE8numVerts) #1
  br label %21

21:                                               ; preds = %19, %9, %0
  %22 = load atomic i8, ptr @_ZGVZN32pxrInternal_v0_24__pxrReserved__33UsdImagingGetUnitCubeMeshTopologyEvE5verts acquire, align 8
  %23 = icmp eq i8 %22, 0
  br i1 %23, label %24, label %36, !prof !4

24:                                               ; preds = %21
  %25 = call i32 @__cxa_guard_acquire(ptr @_ZGVZN32pxrInternal_v0_24__pxrReserved__33UsdImagingGetUnitCubeMeshTopologyEvE5verts) #1
  %26 = icmp ne i32 %25, 0
  br i1 %26, label %27, label %36

27:                                               ; preds = %24
  call void @llvm.memcpy.p0.p0.i64(ptr align 4 %6, ptr align 4 @constinit.4, i64 96, i1 false)
  %28 = getelementptr inbounds nuw %"class.std::initializer_list", ptr %5, i32 0, i32 0
  store ptr %6, ptr %28, align 8
  %29 = getelementptr inbounds nuw %"class.std::initializer_list", ptr %5, i32 0, i32 1
  store i64 24, ptr %29, align 8
  %30 = getelementptr inbounds nuw { ptr, i64 }, ptr %5, i32 0, i32 0
  %31 = load ptr, ptr %30, align 8
  %32 = getelementptr inbounds nuw { ptr, i64 }, ptr %5, i32 0, i32 1
  %33 = load i64, ptr %32, align 8
  invoke void @_ZN32pxrInternal_v0_24__pxrReserved__7VtArrayIiEC1ESt16initializer_listIiE(ptr noundef nonnull align 8 dereferenceable(40) @_ZZN32pxrInternal_v0_24__pxrReserved__33UsdImagingGetUnitCubeMeshTopologyEvE5verts, ptr %31, i64 %33)
          to label %34 unwind label %56

34:                                               ; preds = %27
  %35 = call i32 @__cxa_atexit(ptr @_ZN32pxrInternal_v0_24__pxrReserved__7VtArrayIiED1Ev, ptr @_ZZN32pxrInternal_v0_24__pxrReserved__33UsdImagingGetUnitCubeMeshTopologyEvE5verts, ptr @__dso_handle) #1
  call void @__cxa_guard_release(ptr @_ZGVZN32pxrInternal_v0_24__pxrReserved__33UsdImagingGetUnitCubeMeshTopologyEvE5verts) #1
  br label %36

36:                                               ; preds = %34, %24, %21
  %37 = load atomic i8, ptr @_ZGVZN32pxrInternal_v0_24__pxrReserved__33UsdImagingGetUnitCubeMeshTopologyEvE8cubeTopo acquire, align 8
  %38 = icmp eq i8 %37, 0
  br i1 %38, label %39, label %51, !prof !4

39:                                               ; preds = %36
  %40 = call i32 @__cxa_guard_acquire(ptr @_ZGVZN32pxrInternal_v0_24__pxrReserved__33UsdImagingGetUnitCubeMeshTopologyEvE8cubeTopo) #1
  %41 = icmp ne i32 %40, 0
  br i1 %41, label %42, label %51

42:                                               ; preds = %39
  %43 = invoke noundef ptr @_ZNK32pxrInternal_v0_24__pxrReserved__12TfStaticDataINS_37PxOsdOpenSubdivTokens_StaticTokenTypeENS_27Tf_StaticDataDefaultFactoryIS1_EEEptEv(ptr noundef nonnull align 8 dereferenceable(8) @_ZN32pxrInternal_v0_24__pxrReserved__21PxOsdOpenSubdivTokensE)
          to label %44 unwind label %60

44:                                               ; preds = %42
  %45 = getelementptr inbounds nuw %"struct.pxrInternal_v0_24__pxrReserved__::PxOsdOpenSubdivTokens_StaticTokenType", ptr %43, i32 0, i32 6
  %46 = invoke noundef ptr @_ZNK32pxrInternal_v0_24__pxrReserved__12TfStaticDataINS_37PxOsdOpenSubdivTokens_StaticTokenTypeENS_27Tf_StaticDataDefaultFactoryIS1_EEEptEv(ptr noundef nonnull align 8 dereferenceable(8) @_ZN32pxrInternal_v0_24__pxrReserved__21PxOsdOpenSubdivTokensE)
          to label %47 unwind label %60

47:                                               ; preds = %44
  %48 = getelementptr inbounds nuw %"struct.pxrInternal_v0_24__pxrReserved__::PxOsdOpenSubdivTokens_StaticTokenType", ptr %46, i32 0, i32 14
  invoke void @_ZN32pxrInternal_v0_24__pxrReserved__17PxOsdMeshTopologyC1ERKNS_7TfTokenES3_RKNS_7VtArrayIiEES7_(ptr noundef nonnull align 8 dereferenceable(369) @_ZZN32pxrInternal_v0_24__pxrReserved__33UsdImagingGetUnitCubeMeshTopologyEvE8cubeTopo, ptr noundef nonnull align 8 dereferenceable(8) %45, ptr noundef nonnull align 8 dereferenceable(8) %48, ptr noundef nonnull align 8 dereferenceable(40) @_ZZN32pxrInternal_v0_24__pxrReserved__33UsdImagingGetUnitCubeMeshTopologyEvE8numVerts, ptr noundef nonnull align 8 dereferenceable(40) @_ZZN32pxrInternal_v0_24__pxrReserved__33UsdImagingGetUnitCubeMeshTopologyEvE5verts)
          to label %49 unwind label %60

49:                                               ; preds = %47
  %50 = call i32 @__cxa_atexit(ptr @_ZN32pxrInternal_v0_24__pxrReserved__17PxOsdMeshTopologyD2Ev, ptr @_ZZN32pxrInternal_v0_24__pxrReserved__33UsdImagingGetUnitCubeMeshTopologyEvE8cubeTopo, ptr @__dso_handle) #1
  call void @__cxa_guard_release(ptr @_ZGVZN32pxrInternal_v0_24__pxrReserved__33UsdImagingGetUnitCubeMeshTopologyEvE8cubeTopo) #1
  br label %51

51:                                               ; preds = %49, %39, %36
  ret ptr @_ZZN32pxrInternal_v0_24__pxrReserved__33UsdImagingGetUnitCubeMeshTopologyEvE8cubeTopo

52:                                               ; preds = %12
  %53 = landingpad { ptr, i32 }
          cleanup
  %54 = extractvalue { ptr, i32 } %53, 0
  store ptr %54, ptr %3, align 8
  %55 = extractvalue { ptr, i32 } %53, 1
  store i32 %55, ptr %4, align 4
  call void @__cxa_guard_abort(ptr @_ZGVZN32pxrInternal_v0_24__pxrReserved__33UsdImagingGetUnitCubeMeshTopologyEvE8numVerts) #1
  br label %64

56:                                               ; preds = %27
  %57 = landingpad { ptr, i32 }
          cleanup
  %58 = extractvalue { ptr, i32 } %57, 0
  store ptr %58, ptr %3, align 8
  %59 = extractvalue { ptr, i32 } %57, 1
  store i32 %59, ptr %4, align 4
  call void @__cxa_guard_abort(ptr @_ZGVZN32pxrInternal_v0_24__pxrReserved__33UsdImagingGetUnitCubeMeshTopologyEvE5verts) #1
  br label %64

60:                                               ; preds = %47, %44, %42
  %61 = landingpad { ptr, i32 }
          cleanup
  %62 = extractvalue { ptr, i32 } %61, 0
  store ptr %62, ptr %3, align 8
  %63 = extractvalue { ptr, i32 } %61, 1
  store i32 %63, ptr %4, align 4
  call void @__cxa_guard_abort(ptr @_ZGVZN32pxrInternal_v0_24__pxrReserved__33UsdImagingGetUnitCubeMeshTopologyEvE8cubeTopo) #1
  br label %64

64:                                               ; preds = %60, %56, %52
  %65 = load ptr, ptr %3, align 8
  %66 = load i32, ptr %4, align 4
  %67 = insertvalue { ptr, i32 } poison, ptr %65, 0
  %68 = insertvalue { ptr, i32 } %67, i32 %66, 1
  resume { ptr, i32 } %68
}